; Function Attrs: null_pointer_is_valid sspstrong uwtable
define internal i32 @dissect_cms_T_eContent(i1 zeroext %0, ptr noundef %1, i32 noundef %2, ptr noundef %3, ptr noundef %4, i32 noundef %5) #0 {
  %7 = getelementptr inbounds nuw i8, ptr %3, i64 16
  %8 = load ptr, ptr %7, align 8
  %9 = getelementptr inbounds nuw i8, ptr %8, i64 408
  %10 = load ptr, ptr %9, align 8
  %11 = load i32, ptr @proto_cms, align 4
  %12 = tail call ptr @p_get_proto_data(ptr noundef %10, ptr noundef %8, i32 noundef %11, i32 noundef 0)
  %.not.i = icmp eq ptr %12, null
  br i1 %.not.i, label %13, label %cms_get_private_data.exit

13:                                               ; preds = %6
  %14 = load ptr, ptr %9, align 8
  %15 = tail call noalias dereferenceable_or_null(16) ptr @wmem_alloc0(ptr noundef %14, i64 noundef 16) #5
  %16 = load ptr, ptr %9, align 8
  %17 = load i32, ptr @proto_cms, align 4
  tail call void @p_add_proto_data(ptr noundef %16, ptr noundef %8, i32 noundef %17, i32 noundef 0, ptr noundef %15)
  br label %cms_get_private_data.exit

cms_get_private_data.exit:                        ; preds = %6, %13
  %.0.i = phi ptr [ %12, %6 ], [ %15, %13 ]
  %18 = getelementptr inbounds nuw i8, ptr %.0.i, i64 8
  store ptr null, ptr %18, align 8
  %19 = tail call i32 @dissect_ber_octet_string(i1 noundef zeroext false, ptr noundef %3, ptr noundef %4, ptr noundef %1, i32 noundef %2, i32 noundef %5, ptr noundef nonnull %18)
  %20 = load ptr, ptr %18, align 8
  %.not = icmp eq ptr %20, null
  br i1 %.not, label %31, label %21

21:                                               ; preds = %cms_get_private_data.exit
  %22 = getelementptr inbounds nuw i8, ptr %3, i64 24
  %23 = load ptr, ptr %22, align 8
  %24 = tail call i32 @tvb_reported_length(ptr noundef nonnull %20)
  tail call void (ptr, ptr, ...) @proto_item_set_text(ptr noundef %23, ptr noundef nonnull @.str.566, i32 noundef %24)
  %25 = load ptr, ptr %.0.i, align 8
  %26 = load ptr, ptr %18, align 8
  %27 = load ptr, ptr %7, align 8
  %28 = load ptr, ptr @top_tree, align 8
  %.not15 = icmp eq ptr %28, null
  %29 = select i1 %.not15, ptr %4, ptr %28
  %30 = tail call i32 @call_ber_oid_callback(ptr noundef %25, ptr noundef %26, i32 noundef 0, ptr noundef %27, ptr noundef %29, ptr noundef null)
  br label %31

31:                                               ; preds = %21, %cms_get_private_data.exit
  ret i32 %19
}